target datalayout = "e-m:e-p270:32:32-p271:32:32-p272:64:64-i64:64-i128:128-f80:128-n8:16:32:64-S128"
target triple = "x86_64-pc-linux-gnu"

%struct.Vec_Mem_t_ = type { i32, i32, i32, i32, i32, i32, ptr, ptr, ptr }
%struct.Vec_Wec_t_ = type { i32, i32, ptr }
%struct.Vec_Int_t_ = type { i32, i32, ptr }
%struct.Nf_Man_t_ = type { ptr, ptr, ptr, ptr, ptr, ptr, i32, ptr, %struct.Vec_Ptr_t_, %struct.Vec_Int_t_, %struct.Vec_Int_t_, %struct.Vec_Flt_t_, %struct.Vec_Int_t_, %struct.Vec_Flt_t_, %struct.Vec_Int_t_, %struct.Vec_Int_t_, i32, i32, i32, i32, i32, i64, float, i64, [6 x double], i32 }
%struct.Vec_Ptr_t_ = type { i32, i32, ptr }
%struct.Vec_Flt_t_ = type { i32, i32, ptr }

@.str.8 = private unnamed_addr constant [42 x i8] c"Gates = %d.  Truths = %d.  Matches = %d.\0A\00", align 1

; Function Attrs: inlinehint nounwind uwtable
define internal i32 @Vec_MemEntryNum(ptr noundef %0) #2 {
  %2 = alloca ptr, align 8
  store ptr %0, ptr %2, align 8, !tbaa !21
  %3 = load ptr, ptr %2, align 8, !tbaa !21
  %4 = getelementptr inbounds nuw %struct.Vec_Mem_t_, ptr %3, i32 0, i32 1
  %5 = load i32, ptr %4, align 4, !tbaa !34
  ret i32 %5
}

; Function Attrs: inlinehint nounwind uwtable
define internal i32 @Vec_IntEntry(ptr noundef %0, i32 noundef %1) #2 {
  %3 = alloca ptr, align 8
  %4 = alloca i32, align 4
  store ptr %0, ptr %3, align 8, !tbaa !26
  store i32 %1, ptr %4, align 4, !tbaa !17
  %5 = load ptr, ptr %3, align 8, !tbaa !26
  %6 = getelementptr inbounds nuw %struct.Vec_Int_t_, ptr %5, i32 0, i32 2
  %7 = load ptr, ptr %6, align 8, !tbaa !46
  %8 = load i32, ptr %4, align 4, !tbaa !17
  %9 = sext i32 %8 to i64
  %10 = getelementptr inbounds i32, ptr %7, i64 %9
  %11 = load i32, ptr %10, align 4, !tbaa !17
  ret i32 %11
}

; Function Attrs: inlinehint nounwind uwtable
define internal i32 @Vec_IntSize(ptr noundef %0) #2 {
  %2 = alloca ptr, align 8
  store ptr %0, ptr %2, align 8, !tbaa !26
  %3 = load ptr, ptr %2, align 8, !tbaa !26
  %4 = getelementptr inbounds nuw %struct.Vec_Int_t_, ptr %3, i32 0, i32 1
  %5 = load i32, ptr %4, align 4, !tbaa !44
  ret i32 %5
}

; Function Attrs: inlinehint nounwind uwtable
define internal ptr @Vec_WecEntry(ptr noundef %0, i32 noundef %1) #2 {
  %3 = alloca ptr, align 8
  %4 = alloca i32, align 4
  store ptr %0, ptr %3, align 8, !tbaa !23
  store i32 %1, ptr %4, align 4, !tbaa !17
  %5 = load ptr, ptr %3, align 8, !tbaa !23
  %6 = getelementptr inbounds nuw %struct.Vec_Wec_t_, ptr %5, i32 0, i32 2
  %7 = load ptr, ptr %6, align 8, !tbaa !43
  %8 = load i32, ptr %4, align 4, !tbaa !17
  %9 = sext i32 %8 to i64
  %10 = getelementptr inbounds %struct.Vec_Int_t_, ptr %7, i64 %9
  ret ptr %10
}

; Function Attrs: inlinehint nounwind uwtable
define internal i32 @Vec_WecSize(ptr noundef %0) #2 {
  %2 = alloca ptr, align 8
  store ptr %0, ptr %2, align 8, !tbaa !23
  %3 = load ptr, ptr %2, align 8, !tbaa !23
  %4 = getelementptr inbounds nuw %struct.Vec_Wec_t_, ptr %3, i32 0, i32 1
  %5 = load i32, ptr %4, align 4, !tbaa !40
  ret i32 %5
}

; Function Attrs: nounwind uwtable
define void @Nf_StoPrint(ptr noundef %0, i32 noundef %1) #0 {
  %3 = alloca ptr, align 8
  %4 = alloca i32, align 4
  %5 = alloca i32, align 4
  %6 = alloca i32, align 4
  %7 = alloca i32, align 4
  %8 = alloca i32, align 4
  %9 = alloca i32, align 4
  %10 = alloca ptr, align 8
  store ptr %0, ptr %3, align 8, !tbaa !61
  store i32 %1, ptr %4, align 4, !tbaa !17
  call void @llvm.lifetime.start.p0(i64 4, ptr %5) #13
  call void @llvm.lifetime.start.p0(i64 4, ptr %6) #13
  call void @llvm.lifetime.start.p0(i64 4, ptr %7) #13
  call void @llvm.lifetime.start.p0(i64 4, ptr %8) #13
  call void @llvm.lifetime.start.p0(i64 4, ptr %9) #13
  store i32 0, ptr %9, align 4, !tbaa !17
  store i32 2, ptr %5, align 4, !tbaa !17
  br label %11

11:                                               ; preds = %52, %2
  %12 = load i32, ptr %5, align 4, !tbaa !17
  %13 = load ptr, ptr %3, align 8, !tbaa !61
  %14 = getelementptr inbounds nuw %struct.Nf_Man_t_, ptr %13, i32 0, i32 4
  %15 = load ptr, ptr %14, align 8, !tbaa !80
  %16 = call i32 @Vec_WecSize(ptr noundef %15)
  %17 = icmp slt i32 %12, %16
  br i1 %17, label %18, label %55

18:                                               ; preds = %11
  call void @llvm.lifetime.start.p0(i64 8, ptr %10) #13
  %19 = load ptr, ptr %3, align 8, !tbaa !61
  %20 = getelementptr inbounds nuw %struct.Nf_Man_t_, ptr %19, i32 0, i32 4
  %21 = load ptr, ptr %20, align 8, !tbaa !80
  %22 = load i32, ptr %5, align 4, !tbaa !17
  %23 = call ptr @Vec_WecEntry(ptr noundef %21, i32 noundef %22)
  store ptr %23, ptr %10, align 8, !tbaa !26
  store i32 0, ptr %6, align 4, !tbaa !17
  br label %24

24:                                               ; preds = %48, %18
  %25 = load i32, ptr %6, align 4, !tbaa !17
  %26 = add nsw i32 %25, 1
  %27 = load ptr, ptr %10, align 8, !tbaa !26
  %28 = call i32 @Vec_IntSize(ptr noundef %27)
  %29 = icmp slt i32 %26, %28
  br i1 %29, label %30, label %39

30:                                               ; preds = %24
  %31 = load ptr, ptr %10, align 8, !tbaa !26
  %32 = load i32, ptr %6, align 4, !tbaa !17
  %33 = call i32 @Vec_IntEntry(ptr noundef %31, i32 noundef %32)
  store i32 %33, ptr %7, align 4, !tbaa !17
  br i1 true, label %34, label %39

34:                                               ; preds = %30
  %35 = load ptr, ptr %10, align 8, !tbaa !26
  %36 = load i32, ptr %6, align 4, !tbaa !17
  %37 = add nsw i32 %36, 1
  %38 = call i32 @Vec_IntEntry(ptr noundef %35, i32 noundef %37)
  store i32 %38, ptr %8, align 4, !tbaa !17
  br label %39

39:                                               ; preds = %34, %30, %24
  %40 = phi i1 [ false, %30 ], [ false, %24 ], [ true, %34 ]
  br i1 %40, label %41, label %51

41:                                               ; preds = %39
  %42 = load i32, ptr %9, align 4, !tbaa !17
  %43 = add nsw i32 %42, 1
  store i32 %43, ptr %9, align 4, !tbaa !17
  %44 = load i32, ptr %4, align 4, !tbaa !17
  %45 = icmp ne i32 %44, 0
  br i1 %45, label %47, label %46

46:                                               ; preds = %41
  br label %48

47:                                               ; preds = %41
  br label %48

48:                                               ; preds = %47, %46
  %49 = load i32, ptr %6, align 4, !tbaa !17
  %50 = add nsw i32 %49, 2
  store i32 %50, ptr %6, align 4, !tbaa !17
  br label %24, !llvm.loop !81

51:                                               ; preds = %39
  call void @llvm.lifetime.end.p0(i64 8, ptr %10) #13
  br label %52

52:                                               ; preds = %51
  %53 = load i32, ptr %5, align 4, !tbaa !17
  %54 = add nsw i32 %53, 1
  store i32 %54, ptr %5, align 4, !tbaa !17
  br label %11, !llvm.loop !82

55:                                               ; preds = %11
  %56 = load ptr, ptr %3, align 8, !tbaa !61
  %57 = getelementptr inbounds nuw %struct.Nf_Man_t_, ptr %56, i32 0, i32 6
  %58 = load i32, ptr %57, align 8, !tbaa !83
  %59 = load ptr, ptr %3, align 8, !tbaa !61
  %60 = getelementptr inbounds nuw %struct.Nf_Man_t_, ptr %59, i32 0, i32 3
  %61 = load ptr, ptr %60, align 8, !tbaa !72
  %62 = call i32 @Vec_MemEntryNum(ptr noundef %61)
  %63 = load i32, ptr %9, align 4, !tbaa !17
  %64 = call i32 (ptr, ...) @printf(ptr noundef @.str.8, i32 noundef %58, i32 noundef %62, i32 noundef %63)
  call void @llvm.lifetime.end.p0(i64 4, ptr %9) #13
  call void @llvm.lifetime.end.p0(i64 4, ptr %8) #13
  call void @llvm.lifetime.end.p0(i64 4, ptr %7) #13
  call void @llvm.lifetime.end.p0(i64 4, ptr %6) #13
  call void @llvm.lifetime.end.p0(i64 4, ptr %5) #13
  ret void
}