; Function Attrs: nofree nounwind uwtable
define void @Nf_StoPrint(ptr noundef readonly captures(none) %0, i32 noundef %1) local_unnamed_addr #7 {
  %3 = getelementptr inbounds nuw i8, ptr %0, i64 32
  %4 = load ptr, ptr %3, align 8, !tbaa !78
  %5 = getelementptr i8, ptr %4, i64 4
  %.val20 = load i32, ptr %5, align 4, !tbaa !17
  %6 = icmp sgt i32 %.val20, 2
  br i1 %6, label %.lr.ph28, label %._crit_edge

.lr.ph28:                                         ; preds = %2
  %7 = getelementptr i8, ptr %4, i64 8
  %.val21 = load ptr, ptr %7, align 8, !tbaa !20
  %wide.trip.count = zext nneg i32 %.val20 to i64
  br label %.critedge

.critedge:                                        ; preds = %.lr.ph28, %.critedge
  %indvars.iv = phi i64 [ 2, %.lr.ph28 ], [ %indvars.iv.next, %.critedge ]
  %.01626 = phi i32 [ 0, %.lr.ph28 ], [ %.1.lcssa, %.critedge ]
  %8 = getelementptr %struct.Vec_Int_t_, ptr %.val21, i64 %indvars.iv, i32 1
  %.val = load i32, ptr %8, align 4, !tbaa !22
  %9 = icmp sgt i32 %.val, 1
  %10 = add nsw i32 %.val, -2
  %11 = lshr i32 %10, 1
  %12 = add i32 %.01626, 1
  %13 = add i32 %12, %11
  %.1.lcssa = select i1 %9, i32 %13, i32 %.01626
  %indvars.iv.next = add nuw nsw i64 %indvars.iv, 1
  %exitcond.not = icmp eq i64 %indvars.iv.next, %wide.trip.count
  br i1 %exitcond.not, label %._crit_edge, label %.critedge, !llvm.loop !79

._crit_edge:                                      ; preds = %.critedge, %2
  %.016.lcssa = phi i32 [ 0, %2 ], [ %.1.lcssa, %.critedge ]
  %14 = getelementptr inbounds nuw i8, ptr %0, i64 48
  %15 = load i32, ptr %14, align 8, !tbaa !80
  %16 = getelementptr inbounds nuw i8, ptr %0, i64 24
  %17 = load ptr, ptr %16, align 8, !tbaa !74
  %18 = getelementptr i8, ptr %17, i64 4
  %.val19 = load i32, ptr %18, align 4, !tbaa !31
  %19 = tail call i32 (ptr, ...) @printf(ptr noundef nonnull dereferenceable(1) @.str.8, i32 noundef %15, i32 noundef %.val19, i32 noundef %.016.lcssa)
  ret void
}